   1              		.file	"hello.c"
   2              		.section .text
   3              	.Ltext0:
   4              		.cfi_sections	.debug_frame
   5              		.align	4
   6              	.proc	buserr_except
   7              		.global buserr_except
   8              		.type	buserr_except, @function
   9              	buserr_except:
  10              	.LFB0:
  11              		.file 1 "hello.c"
   1:hello.c       **** // #include <stdio.h>
   2:hello.c       **** #include <support.h>
   3:hello.c       **** 
   4:hello.c       **** // OR32 trap vector dummy functions
   5:hello.c       **** void buserr_except(){}
  12              		.loc 1 5 0
  13              		.cfi_startproc
  14 0000 D7E10FFC 		l.sw    	-4(r1),r1	 # SI store
  15              		.cfi_offset 1, -4
  16 0004 9C21FFFC 		l.addi  	r1,r1,-4 # addsi3
  17              		.cfi_def_cfa_offset 4
  18              		.loc 1 5 0
  19 0008 9C210004 		l.addi	r1,r1,4
  20 000c 44004800 		l.jr    	r9	# return_internal	# delay slot filled
  21 0010 8421FFFC 		l.lwz   	r1,-4(r1)	 # SI load
  22              		.cfi_endproc
  23              	.LFE0:
  24              		.size	buserr_except, .-buserr_except
  25              		.align	4
  26              	.proc	dpf_except
  27              		.global dpf_except
  28              		.type	dpf_except, @function
  29              	dpf_except:
  30              	.LFB1:
   6:hello.c       **** void dpf_except(){}
  31              		.loc 1 6 0
  32              		.cfi_startproc
  33 0014 D7E10FFC 		l.sw    	-4(r1),r1	 # SI store
  34              		.cfi_offset 1, -4
  35 0018 9C21FFFC 		l.addi  	r1,r1,-4 # addsi3
  36              		.cfi_def_cfa_offset 4
  37              		.loc 1 6 0
  38 001c 9C210004 		l.addi	r1,r1,4
  39 0020 44004800 		l.jr    	r9	# return_internal	# delay slot filled
  40 0024 8421FFFC 		l.lwz   	r1,-4(r1)	 # SI load
  41              		.cfi_endproc
  42              	.LFE1:
  43              		.size	dpf_except, .-dpf_except
  44              		.align	4
  45              	.proc	ipf_except
  46              		.global ipf_except
  47              		.type	ipf_except, @function
  48              	ipf_except:
  49              	.LFB2:
   7:hello.c       **** void ipf_except(){}
  50              		.loc 1 7 0
  51              		.cfi_startproc
  52 0028 D7E10FFC 		l.sw    	-4(r1),r1	 # SI store
  53              		.cfi_offset 1, -4
  54 002c 9C21FFFC 		l.addi  	r1,r1,-4 # addsi3
  55              		.cfi_def_cfa_offset 4
  56              		.loc 1 7 0
  57 0030 9C210004 		l.addi	r1,r1,4
  58 0034 44004800 		l.jr    	r9	# return_internal	# delay slot filled
  59 0038 8421FFFC 		l.lwz   	r1,-4(r1)	 # SI load
  60              		.cfi_endproc
  61              	.LFE2:
  62              		.size	ipf_except, .-ipf_except
  63              		.align	4
  64              	.proc	lpint_except
  65              		.global lpint_except
  66              		.type	lpint_except, @function
  67              	lpint_except:
  68              	.LFB3:
   8:hello.c       **** void lpint_except(){timer_interrupt();}
  69              		.loc 1 8 0
  70              		.cfi_startproc
  71 003c D7E14FFC 		l.sw    	-4(r1),r9	 # SI store
  72 0040 D7E10FF8 		l.sw    	-8(r1),r1	 # SI store
  73              		.cfi_offset 9, -4
  74              		.cfi_offset 1, -8
  75              		.loc 1 8 0
  76 0044 04000000 		l.jal   	timer_interrupt # call_value_internal	# delay slot filled
  77 0048 9C21FFF8 		l.addi  	r1,r1,-8 # addsi3
  78              		.cfi_def_cfa_offset 8
  79              	.LVL0:
  80 004c 9C210008 		l.addi	r1,r1,8
  81 0050 8521FFFC 		l.lwz   	r9,-4(r1)	 # SI load
  82 0054 44004800 		l.jr    	r9	# return_internal	# delay slot filled
  83 0058 8421FFF8 		l.lwz   	r1,-8(r1)	 # SI load
  84              		.cfi_endproc
  85              	.LFE3:
  86              		.size	lpint_except, .-lpint_except
  87              		.align	4
  88              	.proc	align_except
  89              		.global align_except
  90              		.type	align_except, @function
  91              	align_except:
  92              	.LFB4:
   9:hello.c       **** void align_except(){}
  93              		.loc 1 9 0
  94              		.cfi_startproc
  95 005c D7E10FFC 		l.sw    	-4(r1),r1	 # SI store
  96              		.cfi_offset 1, -4
  97 0060 9C21FFFC 		l.addi  	r1,r1,-4 # addsi3
  98              		.cfi_def_cfa_offset 4
  99              		.loc 1 9 0
 100 0064 9C210004 		l.addi	r1,r1,4
 101 0068 44004800 		l.jr    	r9	# return_internal	# delay slot filled
 102 006c 8421FFFC 		l.lwz   	r1,-4(r1)	 # SI load
 103              		.cfi_endproc
 104              	.LFE4:
 105              		.size	align_except, .-align_except
 106              		.align	4
 107              	.proc	illegal_except
 108              		.global illegal_except
 109              		.type	illegal_except, @function
 110              	illegal_except:
 111              	.LFB5:
  10:hello.c       **** void illegal_except(){}
 112              		.loc 1 10 0
 113              		.cfi_startproc
 114 0070 D7E10FFC 		l.sw    	-4(r1),r1	 # SI store
 115              		.cfi_offset 1, -4
 116 0074 9C21FFFC 		l.addi  	r1,r1,-4 # addsi3
 117              		.cfi_def_cfa_offset 4
 118              		.loc 1 10 0
 119 0078 9C210004 		l.addi	r1,r1,4
 120 007c 44004800 		l.jr    	r9	# return_internal	# delay slot filled
 121 0080 8421FFFC 		l.lwz   	r1,-4(r1)	 # SI load
 122              		.cfi_endproc
 123              	.LFE5:
 124              		.size	illegal_except, .-illegal_except
 125              		.align	4
 126              	.proc	hpint_except
 127              		.global hpint_except
 128              		.type	hpint_except, @function
 129              	hpint_except:
 130              	.LFB6:
  11:hello.c       **** void hpint_except(){}
 131              		.loc 1 11 0
 132              		.cfi_startproc
 133 0084 D7E10FFC 		l.sw    	-4(r1),r1	 # SI store
 134              		.cfi_offset 1, -4
 135 0088 9C21FFFC 		l.addi  	r1,r1,-4 # addsi3
 136              		.cfi_def_cfa_offset 4
 137              		.loc 1 11 0
 138 008c 9C210004 		l.addi	r1,r1,4
 139 0090 44004800 		l.jr    	r9	# return_internal	# delay slot filled
 140 0094 8421FFFC 		l.lwz   	r1,-4(r1)	 # SI load
 141              		.cfi_endproc
 142              	.LFE6:
 143              		.size	hpint_except, .-hpint_except
 144              		.align	4
 145              	.proc	dtlbmiss_except
 146              		.global dtlbmiss_except
 147              		.type	dtlbmiss_except, @function
 148              	dtlbmiss_except:
 149              	.LFB7:
  12:hello.c       **** void dtlbmiss_except(){}
 150              		.loc 1 12 0
 151              		.cfi_startproc
 152 0098 D7E10FFC 		l.sw    	-4(r1),r1	 # SI store
 153              		.cfi_offset 1, -4
 154 009c 9C21FFFC 		l.addi  	r1,r1,-4 # addsi3
 155              		.cfi_def_cfa_offset 4
 156              		.loc 1 12 0
 157 00a0 9C210004 		l.addi	r1,r1,4
 158 00a4 44004800 		l.jr    	r9	# return_internal	# delay slot filled
 159 00a8 8421FFFC 		l.lwz   	r1,-4(r1)	 # SI load
 160              		.cfi_endproc
 161              	.LFE7:
 162              		.size	dtlbmiss_except, .-dtlbmiss_except
 163              		.align	4
 164              	.proc	itlbmiss_except
 165              		.global itlbmiss_except
 166              		.type	itlbmiss_except, @function
 167              	itlbmiss_except:
 168              	.LFB8:
  13:hello.c       **** void itlbmiss_except(){}
 169              		.loc 1 13 0
 170              		.cfi_startproc
 171 00ac D7E10FFC 		l.sw    	-4(r1),r1	 # SI store
 172              		.cfi_offset 1, -4
 173 00b0 9C21FFFC 		l.addi  	r1,r1,-4 # addsi3
 174              		.cfi_def_cfa_offset 4
 175              		.loc 1 13 0
 176 00b4 9C210004 		l.addi	r1,r1,4
 177 00b8 44004800 		l.jr    	r9	# return_internal	# delay slot filled
 178 00bc 8421FFFC 		l.lwz   	r1,-4(r1)	 # SI load
 179              		.cfi_endproc
 180              	.LFE8:
 181              		.size	itlbmiss_except, .-itlbmiss_except
 182              		.align	4
 183              	.proc	range_except
 184              		.global range_except
 185              		.type	range_except, @function
 186              	range_except:
 187              	.LFB9:
  14:hello.c       **** void range_except(){}
 188              		.loc 1 14 0
 189              		.cfi_startproc
 190 00c0 D7E10FFC 		l.sw    	-4(r1),r1	 # SI store
 191              		.cfi_offset 1, -4
 192 00c4 9C21FFFC 		l.addi  	r1,r1,-4 # addsi3
 193              		.cfi_def_cfa_offset 4
 194              		.loc 1 14 0
 195 00c8 9C210004 		l.addi	r1,r1,4
 196 00cc 44004800 		l.jr    	r9	# return_internal	# delay slot filled
 197 00d0 8421FFFC 		l.lwz   	r1,-4(r1)	 # SI load
 198              		.cfi_endproc
 199              	.LFE9:
 200              		.size	range_except, .-range_except
 201              		.align	4
 202              	.proc	fpu_except
 203              		.global fpu_except
 204              		.type	fpu_except, @function
 205              	fpu_except:
 206              	.LFB10:
  15:hello.c       **** //void syscall_except(){}
  16:hello.c       **** void fpu_except(){}
 207              		.loc 1 16 0
 208              		.cfi_startproc
 209 00d4 D7E10FFC 		l.sw    	-4(r1),r1	 # SI store
 210              		.cfi_offset 1, -4
 211 00d8 9C21FFFC 		l.addi  	r1,r1,-4 # addsi3
 212              		.cfi_def_cfa_offset 4
 213              		.loc 1 16 0
 214 00dc 9C210004 		l.addi	r1,r1,4
 215 00e0 44004800 		l.jr    	r9	# return_internal	# delay slot filled
 216 00e4 8421FFFC 		l.lwz   	r1,-4(r1)	 # SI load
 217              		.cfi_endproc
 218              	.LFE10:
 219              		.size	fpu_except, .-fpu_except
 220              		.align	4
 221              	.proc	trap_except
 222              		.global trap_except
 223              		.type	trap_except, @function
 224              	trap_except:
 225              	.LFB11:
  17:hello.c       **** void trap_except(){}
 226              		.loc 1 17 0
 227              		.cfi_startproc
 228 00e8 D7E10FFC 		l.sw    	-4(r1),r1	 # SI store
 229              		.cfi_offset 1, -4
 230 00ec 9C21FFFC 		l.addi  	r1,r1,-4 # addsi3
 231              		.cfi_def_cfa_offset 4
 232              		.loc 1 17 0
 233 00f0 9C210004 		l.addi	r1,r1,4
 234 00f4 44004800 		l.jr    	r9	# return_internal	# delay slot filled
 235 00f8 8421FFFC 		l.lwz   	r1,-4(r1)	 # SI load
 236              		.cfi_endproc
 237              	.LFE11:
 238              		.size	trap_except, .-trap_except
 239              		.align	4
 240              	.proc	res2_except
 241              		.global res2_except
 242              		.type	res2_except, @function
 243              	res2_except:
 244              	.LFB12:
  18:hello.c       **** void res2_except(){}
 245              		.loc 1 18 0
 246              		.cfi_startproc
 247 00fc D7E10FFC 		l.sw    	-4(r1),r1	 # SI store
 248              		.cfi_offset 1, -4
 249 0100 9C21FFFC 		l.addi  	r1,r1,-4 # addsi3
 250              		.cfi_def_cfa_offset 4
 251              		.loc 1 18 0
 252 0104 9C210004 		l.addi	r1,r1,4
 253 0108 44004800 		l.jr    	r9	# return_internal	# delay slot filled
 254 010c 8421FFFC 		l.lwz   	r1,-4(r1)	 # SI load
 255              		.cfi_endproc
 256              	.LFE12:
 257              		.size	res2_except, .-res2_except
 258              		.section	.rodata.str1.1,"aMS",@progbits,1
 259              	.LC0:
 260 0000 48656C6C 		.string	"Hello World #%i!\n"
 260      6F20576F 
 260      726C6420 
 260      23256921 
 260      0A00
 261              		.section	.text.startup,"ax",@progbits
 262              		.align	4
 263              	.proc	main
 264              		.global main
 265              		.type	main, @function
 266              	main:
 267              	.LFB13:
  19:hello.c       **** 
  20:hello.c       **** 
  21:hello.c       **** int main () {
 268              		.loc 1 21 0
 269              		.cfi_startproc
 270              	.LVL1:
 271 0000 D7E117F8 		l.sw    	-8(r1),r2	 # SI store
 272 0004 D7E14FFC 		l.sw    	-4(r1),r9	 # SI store
 273 0008 D7E10FF4 		l.sw    	-12(r1),r1	 # SI store
 274              		.cfi_offset 2, -8
 275              		.cfi_offset 9, -4
 276              		.cfi_offset 1, -12
  22:hello.c       ****   int n;
  23:hello.c       **** 
  24:hello.c       ****   for (n = 0; n < 10; n++)
 277              		.loc 1 24 0
 278 000c 9C400000 		l.addi  	r2,r0,0	 # move immediate I
  21:hello.c       ****   int n;
 279              		.loc 1 21 0
 280 0010 9C21FFF0 		l.addi  	r1,r1,-16 # addsi3
 281              		.cfi_def_cfa_offset 16
 282              	.LVL2:
  25:hello.c       ****     printf ("Hello World #%i!\n", n);
 283              		.loc 1 25 0 discriminator 3
 284 0014 18600000 		l.movhi  	r3,hi(.LC0) # movsi_high
 285              	.L18:
 286 0018 D4011000 		l.sw    	0(r1),r2	 # SI store
 287 001c A8630000 		l.ori   	r3,r3,lo(.LC0) # movsi_lo_sum
 288              	.LVL3:
 289 0020 04000000 		l.jal   	printf# call_internal	# delay slot filled
 290 0024 9C420001 		l.addi  	r2,r2,1 # addsi3
 291              	.LVL4:
  24:hello.c       ****     printf ("Hello World #%i!\n", n);
 292              		.loc 1 24 0 discriminator 3
 293 0028 BC22000A 		l.sfnei	r2,10 # cmpsi_ne
 294 002c 13FFFFFB 		l.bf	.L18	# delay slot filled
 295 0030 18600000 		l.movhi  	r3,hi(.LC0) # movsi_high
  26:hello.c       **** }
 296              		.loc 1 26 0
 297 0034 9C210010 		l.addi	r1,r1,16
 298 0038 8521FFFC 		l.lwz   	r9,-4(r1)	 # SI load
 299 003c 8421FFF4 		l.lwz   	r1,-12(r1)	 # SI load
 300              	.LVL5:
 301 0040 44004800 		l.jr    	r9	# return_internal	# delay slot filled
 302 0044 8441FFF8 		l.lwz   	r2,-8(r1)	 # SI load
 303              		.cfi_endproc
 304              	.LFE13:
 305              		.size	main, .-main
 306              		.section .text
 307              	.Letext0:
 308              		.file 2 "/home/gundolf/hsa/paranut/src/sw/hello/openrisc/orpsocv2/sw/support/support.h"